Certificate:
    Data:
        Version: 3 (0x2)
        Serial Number: 3 (0x3)
        Signature Algorithm: sha256WithRSAEncryption
        Issuer: CN=MyTestCA
        Validity
            Not Before: Feb 16 04:43:45 2024 GMT
            Not After : Feb 12 04:43:45 2039 GMT
        Subject: CN=localhost, O=server
        Subject Public Key Info:
            Public Key Algorithm: rsaEncryption
                Public-Key: (2048 bit)
                Modulus:
                    00:b8:b2:d4:75:b1:ea:3a:c5:22:46:79:2f:d9:2d:
                    1f:89:a7:6b:ab:07:dd:81:a6:60:54:89:af:33:2a:
                    2b:55:8c:e8:27:95:bb:6a:72:52:c9:63:e7:57:f9:
                    72:fe:b8:cb:ee:da:22:3e:10:5c:56:00:ee:08:69:
                    1f:ec:28:cf:37:81:39:b5:dc:48:f7:29:58:93:f5:
                    07:12:d3:06:d6:59:7a:90:38:85:f2:15:9f:1c:37:
                    64:b5:da:a7:42:fb:8b:91:43:00:03:9c:60:20:57:
                    d7:f9:43:01:b9:36:64:ed:5a:30:ae:39:ce:ba:58:
                    cd:e5:e5:4d:f3:dc:b6:7d:85:d7:b6:a0:b5:f7:51:
                    e2:94:6f:55:c0:b7:b0:60:a4:1d:fc:8b:21:6f:8a:
                    76:59:fc:62:04:85:4e:f9:c4:29:9d:80:7a:aa:eb:
                    eb:11:80:b5:5c:f7:11:6c:9b:97:76:b7:3b:29:c6:
                    27:75:67:68:8f:a3:3b:69:3d:73:3a:71:c9:ad:d2:
                    ed:bf:b1:7b:76:46:20:57:db:ea:c0:de:f0:de:e7:
                    7b:b8:d6:84:6e:c1:ef:5b:3d:22:fb:aa:a3:5f:fb:
                    84:ef:9e:4d:66:82:7c:3b:c0:f1:e6:e8:3f:d6:5c:
                    69:96:75:e5:7e:66:9d:22:26:d8:3c:12:5a:b5:1b:
                    12:8b
                Exponent: 65537 (0x10001)
        X509v3 extensions:
            X509v3 Basic Constraints: 
                CA:FALSE
            X509v3 Subject Key Identifier: 
                64:EA:DA:BF:2B:78:10:EA:D5:29:CF:EC:6E:10:53:90:2D:F1:DB:D0
            X509v3 Authority Key Identifier: 
                60:99:53:54:9F:83:AA:D6:58:FB:DA:60:F6:AF:2B:84:8F:4F:43:C4
    Signature Algorithm: sha256WithRSAEncryption
    Signature Value:
        de:33:7e:f8:29:8f:e6:32:4d:d8:7a:23:d2:d6:42:c6:b7:38:
        f2:39:3b:b1:85:cd:71:ea:aa:b7:74:81:5a:23:ef:e8:53:18:
        ea:06:5b:f7:3a:01:33:49:79:9f:a5:4f:ca:6c:e0:56:c8:dd:
        aa:62:06:37:8f:62:e0:74:5a:f8:84:6a:72:29:de:59:cc:96:
        f2:b0:bd:ba:5f:df:98:35:87:04:be:51:fe:91:91:86:3b:fd:
        86:e6:66:89:9a:7e:c1:c3:1a:1b:15:97:a4:38:9e:69:d4:81:
        b4:63:6e:7c:21:98:b3:ff:fd:65:42:3a:f3:e2:7c:e3:9e:a7:
        33:4c:c5:63:f2:91:f9:7b:d5:49:b2:5d:51:db:44:ea:13:37:
        58:08:c8:c9:8b:08:c0:ee:64:0b:37:c2:bc:91:b8:38:54:49:
        74:c9:dd:ec:e3:13:ae:c7:95:e5:e0:12:d2:77:cb:67:62:b4:
        31:91:b9:28:89:b8:e3:83:07:76:81:4f:a8:6e:a8:11:ca:94:
        4d:39:99:45:f9:9b:fa:8a:28:d2:a9:57:0e:68:1e:04:a8:04:
        ce:9e:ec:3e:c5:22:14:3d:c0:f6:ed:52:53:6f:c1:0d:cc:1e:
        8b:10:a4:c0:ca:54:c1:35:b5:c1:f3:72:81:98:c9:30:4b:95:
        81:4a:13:9f
-----BEGIN CERTIFICATE-----
MIIDADCCAeigAwIBAgIBAzANBgkqhkiG9w0BAQsFADATMREwDwYDVQQDDAhNeVRl
c3RDQTAeFw0yNDAyMTYwNDQzNDVaFw0zOTAyMTIwNDQzNDVaMCUxEjAQBgNVBAMM
CWxvY2FsaG9zdDEPMA0GA1UECgwGc2VydmVyMIIBIjANBgkqhkiG9w0BAQEFAAOC
AQ8AMIIBCgKCAQEAuLLUdbHqOsUiRnkv2S0fiadrqwfdgaZgVImvMyorVYzoJ5W7
anJSyWPnV/ly/rjL7toiPhBcVgDuCGkf7CjPN4E5tdxI9ylYk/UHEtMG1ll6kDiF
8hWfHDdktdqnQvuLkUMAA5xgIFfX+UMBuTZk7VowrjnOuljN5eVN89y2fYXXtqC1
91HilG9VwLewYKQd/Ishb4p2WfxiBIVO+cQpnYB6quvrEYC1XPcRbJuXdrc7KcYn
dWdoj6M7aT1zOnHJrdLtv7F7dkYgV9vqwN7w3ud7uNaEbsHvWz0i+6qjX/uE755N
ZoJ8O8Dx5ug/1lxplnXlfmadIibYPBJatRsSiwIDAQABo00wSzAJBgNVHRMEAjAA
MB0GA1UdDgQWBBRk6tq/K3gQ6tUpz+xuEFOQLfHb0DAfBgNVHSMEGDAWgBRgmVNU
n4Oq1lj72mD2ryuEj09DxDANBgkqhkiG9w0BAQsFAAOCAQEA3jN++CmP5jJN2Hoj
0tZCxrc48jk7sYXNceqqt3SBWiPv6FMY6gZb9zoBM0l5n6VPymzgVsjdqmIGN49i
4HRa+IRqcineWcyW8rC9ul/fmDWHBL5R/pGRhjv9huZmiZp+wcMaGxWXpDieadSB
tGNufCGYs//9ZUI68+J8456nM0zFY/KR+XvVSbJdUdtE6hM3WAjIyYsIwO5kCzfC
vJG4OFRJdMnd7OMTrseV5eAS0nfLZ2K0MZG5KIm444MHdoFPqG6oEcqUTTmZRfmb
+ooo0qlXDmgeBKgEzp7sPsUiFD3A9u1SU2/BDcweixCkwMpUwTW1wfNygZjJMEuV
gUoTnw==
-----END CERTIFICATE-----
