Certificate:
    Data:
        Version: 3 (0x2)
        Serial Number: 4 (0x4)
        Signature Algorithm: sha256WithRSAEncryption
        Issuer: CN=MyTestCA
        Validity
            Not Before: Feb 16 04:43:45 2024 GMT
            Not After : Feb 12 04:43:45 2039 GMT
        Subject: CN=localhost, O=client
        Subject Public Key Info:
            Public Key Algorithm: rsaEncryption
                Public-Key: (2048 bit)
                Modulus:
                    00:e0:7c:64:67:0e:74:30:68:96:62:69:6b:c0:90:
                    47:02:3c:2c:0f:b9:5f:7e:df:60:1e:b4:40:78:ff:
                    22:10:8d:28:2c:82:66:fc:c9:94:50:8c:80:d8:34:
                    83:18:90:88:b0:ff:a0:ae:49:99:6b:02:e6:bb:b0:
                    f4:bc:92:15:21:4a:3e:38:13:54:43:fd:e6:00:25:
                    87:f7:3d:79:01:6e:6c:fc:88:3f:15:91:2b:84:18:
                    37:44:56:52:fa:15:d5:4f:ad:fd:53:de:2e:2a:77:
                    be:9a:38:7f:1b:81:23:ec:e6:07:84:1c:b0:9f:e1:
                    0a:6a:42:09:b9:44:ec:d7:4b:05:d2:45:bf:e2:1d:
                    46:c7:df:8f:87:7b:5f:61:26:a0:35:d3:03:5d:77:
                    ed:d0:a9:e7:fd:7f:2f:33:02:c5:e4:48:3c:64:72:
                    a7:b7:2d:f4:c0:94:6b:e2:bd:9b:a9:37:92:08:f4:
                    b9:93:76:df:a5:cc:4e:02:76:92:a5:30:ee:22:8c:
                    48:a7:bc:3d:a6:3c:0b:54:05:56:bd:b8:ea:0e:55:
                    39:0e:b3:f1:a6:c9:f6:f6:2f:12:4c:da:49:ec:cc:
                    bb:fb:5d:bf:0b:f4:09:0e:b9:42:24:26:af:d6:66:
                    b4:e0:6d:90:65:bc:80:ae:2d:da:c7:f3:02:7a:89:
                    c5:b1
                Exponent: 65537 (0x10001)
        X509v3 extensions:
            X509v3 Basic Constraints: 
                CA:FALSE
            X509v3 Subject Key Identifier: 
                77:1C:53:73:49:A4:C4:BE:A9:4E:93:2F:73:AC:7A:97:EB:DF:35:9E
            X509v3 Authority Key Identifier: 
                60:99:53:54:9F:83:AA:D6:58:FB:DA:60:F6:AF:2B:84:8F:4F:43:C4
    Signature Algorithm: sha256WithRSAEncryption
    Signature Value:
        71:c3:bf:b2:68:7c:fa:fc:47:57:54:53:2b:0f:31:9a:0b:5b:
        6c:73:ae:1b:a0:c5:2c:3d:4e:e5:99:fa:33:7f:d3:f2:39:27:
        99:dc:58:3a:ec:0a:bf:63:14:07:9e:de:3f:64:aa:d3:9f:d6:
        a3:d4:c5:45:be:4f:07:42:93:52:df:9c:70:a6:3d:b5:63:14:
        06:58:45:b7:d7:cb:16:96:cf:03:4c:71:09:bb:b8:8a:20:51:
        c9:ed:f3:b0:25:ed:de:72:45:9c:e1:23:b4:92:a2:34:e2:e3:
        8d:39:d5:15:2a:f3:38:b2:22:f2:1a:7d:e0:91:a6:05:8a:19:
        18:fb:c2:a7:cb:9b:a9:2b:d3:ce:0f:6d:42:57:07:72:de:f8:
        57:50:4f:23:16:8f:d3:7b:78:76:24:0b:5b:4b:f1:63:15:eb:
        28:9a:b6:b8:59:7d:fc:58:c2:77:78:ed:7e:e5:50:9e:b0:2d:
        db:78:6c:d9:81:8b:ec:1f:6f:d2:13:96:9d:4d:e3:bc:75:0b:
        4b:80:2a:e1:69:ae:9b:7b:44:54:ea:cf:85:2e:1f:89:5d:a7:
        9a:59:5b:f6:10:87:d8:61:23:4d:26:1b:de:85:ec:75:96:7c:
        fe:6c:09:90:7d:ab:58:90:39:bf:32:56:0b:5d:6c:be:23:5e:
        02:79:a2:8e
-----BEGIN CERTIFICATE-----
MIIDADCCAeigAwIBAgIBBDANBgkqhkiG9w0BAQsFADATMREwDwYDVQQDDAhNeVRl
c3RDQTAeFw0yNDAyMTYwNDQzNDVaFw0zOTAyMTIwNDQzNDVaMCUxEjAQBgNVBAMM
CWxvY2FsaG9zdDEPMA0GA1UECgwGY2xpZW50MIIBIjANBgkqhkiG9w0BAQEFAAOC
AQ8AMIIBCgKCAQEA4HxkZw50MGiWYmlrwJBHAjwsD7lfft9gHrRAeP8iEI0oLIJm
/MmUUIyA2DSDGJCIsP+grkmZawLmu7D0vJIVIUo+OBNUQ/3mACWH9z15AW5s/Ig/
FZErhBg3RFZS+hXVT639U94uKne+mjh/G4Ej7OYHhBywn+EKakIJuUTs10sF0kW/
4h1Gx9+Ph3tfYSagNdMDXXft0Knn/X8vMwLF5Eg8ZHKnty30wJRr4r2bqTeSCPS5
k3bfpcxOAnaSpTDuIoxIp7w9pjwLVAVWvbjqDlU5DrPxpsn29i8STNpJ7My7+12/
C/QJDrlCJCav1ma04G2QZbyAri3ax/MCeonFsQIDAQABo00wSzAJBgNVHRMEAjAA
MB0GA1UdDgQWBBR3HFNzSaTEvqlOky9zrHqX6981njAfBgNVHSMEGDAWgBRgmVNU
n4Oq1lj72mD2ryuEj09DxDANBgkqhkiG9w0BAQsFAAOCAQEAccO/smh8+vxHV1RT
Kw8xmgtbbHOuG6DFLD1O5Zn6M3/T8jknmdxYOuwKv2MUB57eP2Sq05/Wo9TFRb5P
B0KTUt+ccKY9tWMUBlhFt9fLFpbPA0xxCbu4iiBRye3zsCXt3nJFnOEjtJKiNOLj
jTnVFSrzOLIi8hp94JGmBYoZGPvCp8ubqSvTzg9tQlcHct74V1BPIxaP03t4diQL
W0vxYxXrKJq2uFl9/FjCd3jtfuVQnrAt23hs2YGL7B9v0hOWnU3jvHULS4Aq4Wmu
m3tEVOrPhS4fiV2nmllb9hCH2GEjTSYb3oXsdZZ8/mwJkH2rWJA5vzJWC11sviNe
Anmijg==
-----END CERTIFICATE-----
